; Function Attrs: mustprogress nofree norecurse nosync nounwind memory(readwrite, inaccessiblemem: none) uwtable
define void @_ZNK6casadi19FixedStepIntegrator8impulseBEPNS_16IntegratorMemoryEPKdS4_S4_(ptr nocapture noundef nonnull readonly align 8 dereferenceable(1976) %0, ptr nocapture noundef readonly %1, ptr noundef readonly %2, ptr noundef readonly %3, ptr noundef readonly %4) unnamed_addr #15 align 2 {
  %6 = getelementptr inbounds i8, ptr %0, i64 1720
  %7 = load i64, ptr %6, align 8
  %8 = getelementptr inbounds i8, ptr %1, i64 256
  %9 = load ptr, ptr %8, align 8
  %10 = icmp ne ptr %4, null
  %11 = icmp ne ptr %9, null
  %or.cond.i = and i1 %10, %11
  %12 = icmp sgt i64 %7, 0
  %or.cond15.i = and i1 %12, %or.cond.i
  br i1 %or.cond15.i, label %.lr.ph.i, label %_ZN6casadi11casadi_axpyIdEEvxT_PKS1_PS1_.exit

.lr.ph.i:                                         ; preds = %5, %.lr.ph.i
  %.014.i = phi i64 [ %18, %.lr.ph.i ], [ 0, %5 ]
  %.0813.i = phi ptr [ %15, %.lr.ph.i ], [ %9, %5 ]
  %.0912.i = phi ptr [ %13, %.lr.ph.i ], [ %4, %5 ]
  %13 = getelementptr inbounds i8, ptr %.0912.i, i64 8
  %14 = load double, ptr %.0912.i, align 8
  %15 = getelementptr inbounds i8, ptr %.0813.i, i64 8
  %16 = load double, ptr %.0813.i, align 8
  %17 = fadd double %14, %16
  store double %17, ptr %.0813.i, align 8
  %18 = add nuw nsw i64 %.014.i, 1
  %exitcond.not.i = icmp eq i64 %18, %7
  br i1 %exitcond.not.i, label %_ZN6casadi11casadi_axpyIdEEvxT_PKS1_PS1_.exit, label %.lr.ph.i, !llvm.loop !116

_ZN6casadi11casadi_axpyIdEEvxT_PKS1_PS1_.exit:    ; preds = %.lr.ph.i, %5
  %19 = getelementptr inbounds i8, ptr %0, i64 1648
  %20 = load i64, ptr %19, align 8
  %21 = getelementptr inbounds i8, ptr %1, i64 160
  %22 = load ptr, ptr %21, align 8
  %23 = icmp ne ptr %2, null
  %24 = icmp ne ptr %22, null
  %or.cond.i8 = and i1 %23, %24
  %25 = icmp sgt i64 %20, 0
  %or.cond15.i9 = and i1 %25, %or.cond.i8
  br i1 %or.cond15.i9, label %.lr.ph.i10, label %_ZN6casadi11casadi_axpyIdEEvxT_PKS1_PS1_.exit15

.lr.ph.i10:                                       ; preds = %_ZN6casadi11casadi_axpyIdEEvxT_PKS1_PS1_.exit, %.lr.ph.i10
  %.014.i11 = phi i64 [ %31, %.lr.ph.i10 ], [ 0, %_ZN6casadi11casadi_axpyIdEEvxT_PKS1_PS1_.exit ]
  %.0813.i12 = phi ptr [ %28, %.lr.ph.i10 ], [ %22, %_ZN6casadi11casadi_axpyIdEEvxT_PKS1_PS1_.exit ]
  %.0912.i13 = phi ptr [ %26, %.lr.ph.i10 ], [ %2, %_ZN6casadi11casadi_axpyIdEEvxT_PKS1_PS1_.exit ]
  %26 = getelementptr inbounds i8, ptr %.0912.i13, i64 8
  %27 = load double, ptr %.0912.i13, align 8
  %28 = getelementptr inbounds i8, ptr %.0813.i12, i64 8
  %29 = load double, ptr %.0813.i12, align 8
  %30 = fadd double %27, %29
  store double %30, ptr %.0813.i12, align 8
  %31 = add nuw nsw i64 %.014.i11, 1
  %exitcond.not.i14 = icmp eq i64 %31, %20
  br i1 %exitcond.not.i14, label %_ZN6casadi11casadi_axpyIdEEvxT_PKS1_PS1_.exit15, label %.lr.ph.i10, !llvm.loop !116

_ZN6casadi11casadi_axpyIdEEvxT_PKS1_PS1_.exit15:  ; preds = %.lr.ph.i10, %_ZN6casadi11casadi_axpyIdEEvxT_PKS1_PS1_.exit
  %32 = getelementptr inbounds i8, ptr %0, i64 1656
  %33 = load i64, ptr %32, align 8
  %34 = getelementptr inbounds i8, ptr %1, i64 248
  %35 = load ptr, ptr %34, align 8
  %36 = icmp ne ptr %3, null
  %37 = icmp ne ptr %35, null
  %or.cond.i16 = and i1 %36, %37
  %38 = icmp sgt i64 %33, 0
  %or.cond15.i17 = and i1 %38, %or.cond.i16
  br i1 %or.cond15.i17, label %.lr.ph.i18.preheader, label %_ZN6casadi11casadi_axpyIdEEvxT_PKS1_PS1_.exit23

.lr.ph.i18.preheader:                             ; preds = %_ZN6casadi11casadi_axpyIdEEvxT_PKS1_PS1_.exit15
  %39 = getelementptr inbounds i8, ptr %0, i64 1960
  %40 = load i64, ptr %39, align 8
  %41 = getelementptr inbounds double, ptr %35, i64 %40
  %42 = sub nsw i64 0, %33
  %43 = getelementptr inbounds double, ptr %41, i64 %42
  br label %.lr.ph.i18

.lr.ph.i18:                                       ; preds = %.lr.ph.i18.preheader, %.lr.ph.i18
  %.014.i19 = phi i64 [ %49, %.lr.ph.i18 ], [ 0, %.lr.ph.i18.preheader ]
  %.0813.i20 = phi ptr [ %46, %.lr.ph.i18 ], [ %43, %.lr.ph.i18.preheader ]
  %.0912.i21 = phi ptr [ %44, %.lr.ph.i18 ], [ %3, %.lr.ph.i18.preheader ]
  %44 = getelementptr inbounds i8, ptr %.0912.i21, i64 8
  %45 = load double, ptr %.0912.i21, align 8
  %46 = getelementptr inbounds i8, ptr %.0813.i20, i64 8
  %47 = load double, ptr %.0813.i20, align 8
  %48 = fadd double %45, %47
  store double %48, ptr %.0813.i20, align 8
  %49 = add nuw nsw i64 %.014.i19, 1
  %exitcond.not.i22 = icmp eq i64 %49, %33
  br i1 %exitcond.not.i22, label %_ZN6casadi11casadi_axpyIdEEvxT_PKS1_PS1_.exit23, label %.lr.ph.i18, !llvm.loop !116

_ZN6casadi11casadi_axpyIdEEvxT_PKS1_PS1_.exit23:  ; preds = %.lr.ph.i18, %_ZN6casadi11casadi_axpyIdEEvxT_PKS1_PS1_.exit15
  ret void
}